; Function Attrs: nounwind uwtable
define internal range(i32 -22, 1) i32 @codec2_write_header(ptr noundef %0) #1 {
  %2 = getelementptr inbounds nuw i8, ptr %0, i64 48
  %3 = load ptr, ptr %2, align 8, !tbaa !42
  %4 = load ptr, ptr %3, align 8, !tbaa !43
  %5 = getelementptr inbounds nuw i8, ptr %4, i64 16
  %6 = load ptr, ptr %5, align 8, !tbaa !27
  %7 = getelementptr inbounds nuw i8, ptr %6, i64 24
  %8 = load i32, ptr %7, align 8, !tbaa !51
  %.not = icmp eq i32 %8, 4
  br i1 %.not, label %10, label %9

9:                                                ; preds = %1
  tail call void (ptr, i32, ptr, ...) @av_log(ptr noundef nonnull %0, i32 noundef 16, ptr noundef nonnull @.str.15, i32 noundef 4, i32 noundef %8) #4
  br label %17

10:                                               ; preds = %1
  %11 = getelementptr inbounds nuw i8, ptr %0, i64 32
  %12 = load ptr, ptr %11, align 8, !tbaa !12
  tail call void @avio_wb24(ptr noundef %12, i32 noundef 12639938) #4
  %13 = load ptr, ptr %11, align 8, !tbaa !12
  %14 = load ptr, ptr %5, align 8, !tbaa !27
  %15 = getelementptr inbounds nuw i8, ptr %14, i64 16
  %16 = load ptr, ptr %15, align 8, !tbaa !34
  tail call void @avio_write(ptr noundef %13, ptr noundef %16, i32 noundef 4) #4
  br label %17

17:                                               ; preds = %10, %9
  %.0 = phi i32 [ -22, %9 ], [ 0, %10 ]
  ret i32 %.0
}